Certificate:
    Data:
        Version: 3 (0x2)
        Serial Number:
            0f:0a:03:3e:8f:64:1c:cd:6c:89:74:72:b3:24:76:20:de:e9:04:db
        Signature Algorithm: ecdsa-with-SHA256
        Issuer: C=FR, L=Limoges, O=CRYPTIS, OU=SecuTIC, CN=CertifPlus
        Validity
            Not Before: Apr 15 09:53:23 2025 GMT
            Not After : May 15 09:53:23 2025 GMT
        Subject: C=FR, L=Limoges, O=CRYPTIS, OU=SecuTIC, CN=CertifPlus
        Subject Public Key Info:
            Public Key Algorithm: id-ecPublicKey
                Public-Key: (256 bit)
                pub:
                    04:19:ac:5b:fe:f5:29:5c:7e:d5:01:a5:ca:86:a7:
                    5c:62:ac:2e:be:d3:63:10:c5:d1:31:1e:b1:ca:64:
                    1f:77:f3:8c:1e:9f:20:c3:ac:99:e0:79:df:84:b8:
                    9f:ea:84:a6:1b:b6:3b:09:0b:a4:65:77:bb:eb:78:
                    88:89:4b:2b:bd
                ASN1 OID: prime256v1
                NIST CURVE: P-256
        X509v3 extensions:
            X509v3 Basic Constraints: 
                CA:TRUE
            X509v3 Subject Key Identifier: 
                FE:6D:ED:52:B2:47:6B:52:A0:2E:BE:29:6B:EC:98:38:AA:11:22:33
    Signature Algorithm: ecdsa-with-SHA256
    Signature Value:
        30:45:02:20:22:b0:fd:51:97:8d:46:93:f9:05:4b:2b:70:3a:
        a6:94:5a:4b:fd:de:9a:86:f5:04:ac:6f:da:e2:d7:ea:a1:82:
        02:21:00:82:de:94:81:c1:ac:aa:93:20:77:1d:f1:94:fa:ac:
        7a:58:36:97:d2:33:03:d9:32:3d:1f:06:4c:fb:1e:00:bd
-----BEGIN CERTIFICATE-----
MIIB4TCCAYegAwIBAgIUDwoDPo9kHM1siXRysyR2IN7pBNswCgYIKoZIzj0EAwIw
WDELMAkGA1UEBhMCRlIxEDAOBgNVBAcMB0xpbW9nZXMxEDAOBgNVBAoMB0NSWVBU
SVMxEDAOBgNVBAsMB1NlY3VUSUMxEzARBgNVBAMMCkNlcnRpZlBsdXMwHhcNMjUw
NDE1MDk1MzIzWhcNMjUwNTE1MDk1MzIzWjBYMQswCQYDVQQGEwJGUjEQMA4GA1UE
BwwHTGltb2dlczEQMA4GA1UECgwHQ1JZUFRJUzEQMA4GA1UECwwHU2VjdVRJQzET
MBEGA1UEAwwKQ2VydGlmUGx1czBZMBMGByqGSM49AgEGCCqGSM49AwEHA0IABBms
W/71KVx+1QGlyoanXGKsLr7TYxDF0TEescpkH3fzjB6fIMOsmeB534S4n+qEphu2
OwkLpGV3u+t4iIlLK72jLzAtMAwGA1UdEwQFMAMBAf8wHQYDVR0OBBYEFP5t7VKy
R2tSoC6+KWvsmDiqESIzMAoGCCqGSM49BAMCA0gAMEUCICKw/VGXjUaT+QVLK3A6
ppRaS/3emob1BKxv2uLX6qGCAiEAgt6UgcGsqpMgdx3xlPqselg2l9IzA9kyPR8G
TPseAL0=
-----END CERTIFICATE-----
