Certificate Request:
    Data:
        Version: 1 (0x0)
        Subject: C=FR, L=Limoges, O=CRYPTIS, OU=SecuTIC, CN=localhost
        Subject Public Key Info:
            Public Key Algorithm: id-ecPublicKey
                Public-Key: (256 bit)
                pub:
                    04:7a:6a:65:7c:82:5a:2e:b1:a4:bf:b9:2f:5a:48:
                    7b:98:98:69:b5:29:e6:16:47:39:48:2d:93:5c:cc:
                    9c:ab:8c:43:4e:2b:93:b2:1c:7c:6b:f2:b1:10:7a:
                    d9:f4:77:a6:d3:be:12:f1:60:5a:cb:89:77:3c:32:
                    d7:5e:77:fe:26
                ASN1 OID: prime256v1
                NIST CURVE: P-256
        Attributes:
            Requested Extensions:
                X509v3 Basic Constraints: 
                    CA:FALSE
    Signature Algorithm: ecdsa-with-SHA256
    Signature Value:
        30:45:02:21:00:a4:bf:13:b5:67:bc:17:6b:06:f6:67:87:86:
        67:c6:82:dd:6c:11:75:3c:92:ef:42:3d:ef:31:b5:30:69:f8:
        97:02:20:22:7d:76:c3:db:17:3a:56:30:1d:2b:43:9d:2e:de:
        71:85:bb:11:d3:de:1a:19:32:73:20:73:ec:09:bf:53:00
-----BEGIN CERTIFICATE REQUEST-----
MIIBLjCB1QIBADBXMQswCQYDVQQGEwJGUjEQMA4GA1UEBwwHTGltb2dlczEQMA4G
A1UECgwHQ1JZUFRJUzEQMA4GA1UECwwHU2VjdVRJQzESMBAGA1UEAwwJbG9jYWxo
b3N0MFkwEwYHKoZIzj0CAQYIKoZIzj0DAQcDQgAEemplfIJaLrGkv7kvWkh7mJhp
tSnmFkc5SC2TXMycq4xDTiuTshx8a/KxEHrZ9Hem074S8WBay4l3PDLXXnf+JqAc
MBoGCSqGSIb3DQEJDjENMAswCQYDVR0TBAIwADAKBggqhkjOPQQDAgNIADBFAiEA
pL8TtWe8F2sG9meHhmfGgt1sEXU8ku9CPe8xtTBp+JcCICJ9dsPbFzpWMB0rQ50u
3nGFuxHT3hoZMnMgc+wJv1MA
-----END CERTIFICATE REQUEST-----
