Certificate:
    Data:
        Version: 3 (0x2)
        Serial Number:
            39:71:06:3b:5a:bd:df:b0:ef:fd:6d:db:58:cc:ac:86:00:a7:cb:bd
        Signature Algorithm: ecdsa-with-SHA256
        Issuer: C=FR, L=Limoges, O=CRYPTIS, OU=SecuTIC, CN=CertifPlus
        Validity
            Not Before: Apr 15 09:54:03 2025 GMT
            Not After : Apr 13 09:54:03 2035 GMT
        Subject: C=FR, L=Limoges, O=CRYPTIS, OU=SecuTIC, CN=localhost
        Subject Public Key Info:
            Public Key Algorithm: id-ecPublicKey
                Public-Key: (256 bit)
                pub:
                    04:7a:6a:65:7c:82:5a:2e:b1:a4:bf:b9:2f:5a:48:
                    7b:98:98:69:b5:29:e6:16:47:39:48:2d:93:5c:cc:
                    9c:ab:8c:43:4e:2b:93:b2:1c:7c:6b:f2:b1:10:7a:
                    d9:f4:77:a6:d3:be:12:f1:60:5a:cb:89:77:3c:32:
                    d7:5e:77:fe:26
                ASN1 OID: prime256v1
                NIST CURVE: P-256
        X509v3 extensions:
            X509v3 Basic Constraints: critical
                CA:FALSE
            X509v3 Subject Key Identifier: 
                AE:62:2D:07:D6:A9:A0:C3:39:F4:DE:C7:2F:09:7B:0E:7E:1F:AB:35
            X509v3 Authority Key Identifier: 
                FE:6D:ED:52:B2:47:6B:52:A0:2E:BE:29:6B:EC:98:38:AA:11:22:33
    Signature Algorithm: ecdsa-with-SHA256
    Signature Value:
        30:45:02:21:00:b7:57:0a:d2:f2:e2:bd:3a:ed:ef:d7:ef:80:
        d2:25:c8:f3:d3:e8:96:f9:fb:c5:c8:15:bb:5b:92:c3:70:2a:
        f3:02:20:41:31:98:eb:fc:20:79:81:7e:e5:80:f0:32:73:4e:
        66:60:b6:24:e3:e5:e1:9d:52:8e:66:b6:7d:d2:1a:1a:69
-----BEGIN CERTIFICATE-----
MIICATCCAaegAwIBAgIUOXEGO1q937Dv/W3bWMyshgCny70wCgYIKoZIzj0EAwIw
WDELMAkGA1UEBhMCRlIxEDAOBgNVBAcMB0xpbW9nZXMxEDAOBgNVBAoMB0NSWVBU
SVMxEDAOBgNVBAsMB1NlY3VUSUMxEzARBgNVBAMMCkNlcnRpZlBsdXMwHhcNMjUw
NDE1MDk1NDAzWhcNMzUwNDEzMDk1NDAzWjBXMQswCQYDVQQGEwJGUjEQMA4GA1UE
BwwHTGltb2dlczEQMA4GA1UECgwHQ1JZUFRJUzEQMA4GA1UECwwHU2VjdVRJQzES
MBAGA1UEAwwJbG9jYWxob3N0MFkwEwYHKoZIzj0CAQYIKoZIzj0DAQcDQgAEempl
fIJaLrGkv7kvWkh7mJhptSnmFkc5SC2TXMycq4xDTiuTshx8a/KxEHrZ9Hem074S
8WBay4l3PDLXXnf+JqNQME4wDAYDVR0TAQH/BAIwADAdBgNVHQ4EFgQUrmItB9ap
oMM59N7HLwl7Dn4fqzUwHwYDVR0jBBgwFoAU/m3tUrJHa1KgLr4pa+yYOKoRIjMw
CgYIKoZIzj0EAwIDSAAwRQIhALdXCtLy4r067e/X74DSJcjz0+iW+fvFyBW7W5LD
cCrzAiBBMZjr/CB5gX7lgPAyc05mYLYk4+XhnVKOZrZ90hoaaQ==
-----END CERTIFICATE-----
